; Function Attrs: mustprogress uwtable
define hidden void @_ZN4cvc58internal6theory5arith11TheoryArith15entailmentCheckENS0_12NodeTemplateILb0EEE(ptr noalias sret(%"struct.std::pair.1015") align 8 %agg.result, ptr nocapture noundef nonnull readonly align 8 dereferenceable(1856) %this, ptr nocapture noundef readonly %lit) unnamed_addr #3 align 2 personality ptr @__gxx_personality_v0 {
entry:
  %agg.tmp = alloca %"class.cvc5::internal::NodeTemplate.875", align 8
  %d_internal = getelementptr inbounds i8, ptr %this, i64 1232
  %0 = load ptr, ptr %d_internal, align 8
  %1 = load ptr, ptr %lit, align 8
  store ptr %1, ptr %agg.tmp, align 8
  call void @_ZN4cvc58internal6theory5arith6linear18TheoryArithPrivate15entailmentCheckENS0_12NodeTemplateILb0EEE(ptr sret(%"struct.std::pair.1015") align 8 %agg.result, ptr noundef nonnull align 8 dereferenceable(9400) %0, ptr noundef nonnull %agg.tmp)
  ret void
}